; Function Attrs: nounwind uwtable
define internal fastcc range(i32 -23, 1) i32 @_queues_decref(i64 noundef %0) unnamed_addr #0 {
  %2 = load ptr, ptr getelementptr inbounds nuw (i8, ptr @_globals, i64 8), align 8, !tbaa !20
  %3 = tail call i32 @PyThread_acquire_lock(ptr noundef %2, i32 noundef 1) #6
  %4 = load ptr, ptr getelementptr inbounds nuw (i8, ptr @_globals, i64 16), align 8, !tbaa !39
  %.not12.i = icmp eq ptr %4, null
  br i1 %.not12.i, label %_queuerefs_find.exit.thread, label %.lr.ph.i.preheader

.lr.ph.i.preheader:                               ; preds = %1
  %5 = getelementptr inbounds nuw i8, ptr %4, i64 8
  %6 = load i64, ptr %5, align 8, !tbaa !46
  %7 = icmp eq i64 %6, %0
  br i1 %7, label %_queuerefs_find.exit, label %.lr.ph

.lr.ph.i:                                         ; preds = %.lr.ph
  %8 = getelementptr inbounds nuw i8, ptr %11, i64 8
  %9 = load i64, ptr %8, align 8, !tbaa !46
  %10 = icmp eq i64 %9, %0
  br i1 %10, label %_queuerefs_find.exit, label %.lr.ph, !llvm.loop !62

.lr.ph:                                           ; preds = %.lr.ph.i.preheader, %.lr.ph.i
  %.014.i7 = phi ptr [ %11, %.lr.ph.i ], [ %4, %.lr.ph.i.preheader ]
  %11 = load ptr, ptr %.014.i7, align 8, !tbaa !40
  %.not.i = icmp eq ptr %11, null
  br i1 %.not.i, label %_queuerefs_find.exit.thread, label %.lr.ph.i, !llvm.loop !62

_queuerefs_find.exit:                             ; preds = %.lr.ph.i, %.lr.ph.i.preheader
  %.014.i.lcssa = phi ptr [ %4, %.lr.ph.i.preheader ], [ %11, %.lr.ph.i ]
  %.0913.i.lcssa = phi ptr [ null, %.lr.ph.i.preheader ], [ %.014.i7, %.lr.ph.i ]
  %12 = getelementptr inbounds nuw i8, ptr %.014.i.lcssa, i64 16
  %13 = load i64, ptr %12, align 8, !tbaa !74
  %14 = icmp eq i64 %13, 0
  br i1 %14, label %_queuerefs_find.exit.thread, label %15

15:                                               ; preds = %_queuerefs_find.exit
  %16 = add i64 %13, -1
  store i64 %16, ptr %12, align 8, !tbaa !74
  %17 = icmp eq i64 %16, 0
  br i1 %17, label %18, label %_queuerefs_find.exit.thread

18:                                               ; preds = %15
  %19 = icmp eq ptr %.014.i.lcssa, %4
  %20 = load ptr, ptr %.014.i.lcssa, align 8, !tbaa !40
  br i1 %19, label %21, label %22

21:                                               ; preds = %18
  store ptr %20, ptr getelementptr inbounds nuw (i8, ptr @_globals, i64 16), align 8, !tbaa !39
  br label %_queues_remove_ref.exit

22:                                               ; preds = %18
  store ptr %20, ptr %.0913.i.lcssa, align 8, !tbaa !40
  br label %_queues_remove_ref.exit

_queues_remove_ref.exit:                          ; preds = %21, %22
  store ptr null, ptr %.014.i.lcssa, align 8, !tbaa !40
  %23 = load i64, ptr getelementptr inbounds nuw (i8, ptr @_globals, i64 24), align 8, !tbaa !42
  %24 = add i64 %23, -1
  store i64 %24, ptr getelementptr inbounds nuw (i8, ptr @_globals, i64 24), align 8, !tbaa !42
  %25 = getelementptr inbounds nuw i8, ptr %.014.i.lcssa, i64 24
  %26 = load ptr, ptr %25, align 8, !tbaa !49
  store ptr null, ptr %25, align 8, !tbaa !49
  tail call void @PyMem_RawFree(ptr noundef nonnull %.014.i.lcssa) #6
  %27 = load ptr, ptr getelementptr inbounds nuw (i8, ptr @_globals, i64 8), align 8, !tbaa !20
  tail call void @PyThread_release_lock(ptr noundef %27) #6
  %28 = getelementptr inbounds nuw i8, ptr %26, i64 8
  %29 = load ptr, ptr %28, align 8, !tbaa !35
  %30 = tail call i32 @PyThread_acquire_lock(ptr noundef %29, i32 noundef 1) #6
  %31 = getelementptr inbounds nuw i8, ptr %26, i64 16
  store i32 0, ptr %31, align 8, !tbaa !64
  %32 = load ptr, ptr %28, align 8, !tbaa !35
  tail call void @PyThread_release_lock(ptr noundef %32) #6
  %33 = load i64, ptr %26, align 8, !tbaa !63
  %34 = icmp sgt i64 %33, 0
  br i1 %34, label %.lr.ph.i15, label %_queue_kill_and_wait.exit

.lr.ph.i15:                                       ; preds = %_queues_remove_ref.exit, %.lr.ph.i15
  %35 = load ptr, ptr %28, align 8, !tbaa !35
  %36 = tail call i32 @PyThread_acquire_lock(ptr noundef %35, i32 noundef 1) #6
  %37 = load ptr, ptr %28, align 8, !tbaa !35
  tail call void @PyThread_release_lock(ptr noundef %37) #6
  %38 = load i64, ptr %26, align 8, !tbaa !63
  %39 = icmp sgt i64 %38, 0
  br i1 %39, label %.lr.ph.i15, label %_queue_kill_and_wait.exit, !llvm.loop !86

_queue_kill_and_wait.exit:                        ; preds = %.lr.ph.i15, %_queues_remove_ref.exit
  %40 = getelementptr inbounds nuw i8, ptr %26, i64 40
  %41 = load ptr, ptr %40, align 8, !tbaa !24
  %.not4.i.i.i = icmp eq ptr %41, null
  br i1 %.not4.i.i.i, label %_queue_free.exit, label %.lr.ph.i.i.i

.lr.ph.i.i.i:                                     ; preds = %_queue_kill_and_wait.exit, %_queueitem_free.exit.i.i.i
  %.05.i.i.i = phi ptr [ %43, %_queueitem_free.exit.i.i.i ], [ %41, %_queue_kill_and_wait.exit ]
  %42 = getelementptr inbounds nuw i8, ptr %.05.i.i.i, i64 24
  %43 = load ptr, ptr %42, align 8, !tbaa !29
  store ptr null, ptr %42, align 8, !tbaa !29
  %44 = getelementptr inbounds nuw i8, ptr %.05.i.i.i, i64 8
  %45 = load ptr, ptr %44, align 8, !tbaa !32
  %46 = icmp eq ptr %45, null
  br i1 %46, label %_queueitem_free.exit.i.i.i, label %47

47:                                               ; preds = %.lr.ph.i.i.i
  %48 = tail call i32 @_PyXIData_Release(ptr noundef nonnull %45) #6
  store ptr null, ptr %44, align 8, !tbaa !32
  br label %_queueitem_free.exit.i.i.i

_queueitem_free.exit.i.i.i:                       ; preds = %47, %.lr.ph.i.i.i
  tail call void @PyMem_RawFree(ptr noundef nonnull %.05.i.i.i) #6
  %.not.i.i.i = icmp eq ptr %43, null
  br i1 %.not.i.i.i, label %_queue_free.exit, label %.lr.ph.i.i.i, !llvm.loop !33

_queue_free.exit:                                 ; preds = %_queueitem_free.exit.i.i.i, %_queue_kill_and_wait.exit
  %49 = load ptr, ptr %28, align 8, !tbaa !35
  tail call void @PyThread_free_lock(ptr noundef %49) #6
  tail call void @llvm.memset.p0.i64(ptr noundef nonnull align 8 dereferenceable(64) %26, i8 0, i64 64, i1 false)
  tail call void @PyMem_RawFree(ptr noundef nonnull %26) #6
  br label %51

_queuerefs_find.exit.thread:                      ; preds = %.lr.ph, %1, %15, %_queuerefs_find.exit
  %.012 = phi i32 [ -23, %_queuerefs_find.exit ], [ 0, %15 ], [ -14, %1 ], [ -14, %.lr.ph ]
  %50 = load ptr, ptr getelementptr inbounds nuw (i8, ptr @_globals, i64 8), align 8, !tbaa !20
  tail call void @PyThread_release_lock(ptr noundef %50) #6
  br label %51

51:                                               ; preds = %_queuerefs_find.exit.thread, %_queue_free.exit
  %.0 = phi i32 [ %.012, %_queuerefs_find.exit.thread ], [ 0, %_queue_free.exit ]
  ret i32 %.0
}